; ModuleID = '20/289.c'
source_filename = "20/289.c"
target datalayout = "e-m:e-p270:32:32-p271:32:32-p272:64:64-i64:64-f80:128-n8:16:32:64-S128"
target triple = "x86_64-pc-linux-gnu"

@.str = private unnamed_addr constant [6 x i8] c"%s %s\00", align 1
@.str.1 = private unnamed_addr constant [4 x i8] c"%s\0A\00", align 1

; Function Attrs: noinline nounwind uwtable
define dso_local void @main() #0 {
  %1 = alloca [20 x i8], align 16
  %2 = alloca [3 x i8], align 1
  %3 = alloca [10 x i8], align 1
  %4 = alloca i32, align 4
  %5 = alloca i32, align 4
  %6 = alloca i32, align 4
  %7 = alloca i32, align 4
  %8 = alloca i32, align 4
  %9 = alloca i32, align 4
  %10 = alloca i32, align 4
  %11 = alloca i32, align 4
  %12 = bitcast [20 x i8]* %1 to i8*
  call void @llvm.memset.p0i8.i64(i8* align 16 %12, i8 0, i64 20, i1 false)
  %13 = bitcast [3 x i8]* %2 to i8*
  call void @llvm.memset.p0i8.i64(i8* align 1 %13, i8 0, i64 3, i1 false)
  %14 = bitcast [10 x i8]* %3 to i8*
  call void @llvm.memset.p0i8.i64(i8* align 1 %14, i8 0, i64 10, i1 false)
  store i32 0, i32* %10, align 4
  br label %15

15:                                               ; preds = %142, %0
  %16 = load i32, i32* %10, align 4
  %17 = icmp slt i32 %16, 10000
  br i1 %17, label %18, label %145

18:                                               ; preds = %15
  %19 = call i32 (i8*, ...) @__isoc99_scanf(i8* getelementptr inbounds ([6 x i8], [6 x i8]* @.str, i64 0, i64 0), [20 x i8]* %1, [3 x i8]* %2)
  %20 = getelementptr inbounds [20 x i8], [20 x i8]* %1, i64 0, i64 0
  %21 = call i64 @strlen(i8* %20) #5
  %22 = trunc i64 %21 to i32
  store i32 %22, i32* %8, align 4
  %23 = getelementptr inbounds [3 x i8], [3 x i8]* %2, i64 0, i64 0
  %24 = call i64 @strlen(i8* %23) #5
  %25 = trunc i64 %24 to i32
  store i32 %25, i32* %9, align 4
  %26 = getelementptr inbounds [10 x i8], [10 x i8]* %3, i64 0, i64 0
  %27 = getelementptr inbounds [20 x i8], [20 x i8]* %1, i64 0, i64 0
  %28 = call i8* @strcpy(i8* %26, i8* %27) #6
  store i32 0, i32* %5, align 4
  %29 = getelementptr inbounds [20 x i8], [20 x i8]* %1, i64 0, i64 0
  %30 = load i8, i8* %29, align 16
  %31 = sext i8 %30 to i32
  store i32 %31, i32* %11, align 4
  br label %32

32:                                               ; preds = %54, %18
  %33 = load i32, i32* %5, align 4
  %34 = load i32, i32* %8, align 4
  %35 = icmp slt i32 %33, %34
  br i1 %35, label %36, label %57

36:                                               ; preds = %32
  %37 = load i32, i32* %5, align 4
  %38 = sext i32 %37 to i64
  %39 = getelementptr inbounds [20 x i8], [20 x i8]* %1, i64 0, i64 %38
  %40 = load i8, i8* %39, align 1
  %41 = sext i8 %40 to i32
  %42 = load i32, i32* %11, align 4
  %43 = icmp sgt i32 %41, %42
  br i1 %43, label %44, label %51

44:                                               ; preds = %36
  %45 = load i32, i32* %5, align 4
  %46 = sext i32 %45 to i64
  %47 = getelementptr inbounds [20 x i8], [20 x i8]* %1, i64 0, i64 %46
  %48 = load i8, i8* %47, align 1
  %49 = sext i8 %48 to i32
  store i32 %49, i32* %11, align 4
  %50 = load i32, i32* %5, align 4
  store i32 %50, i32* %4, align 4
  br label %53

51:                                               ; preds = %36
  %52 = load i32, i32* %11, align 4
  store i32 %52, i32* %11, align 4
  br label %53

53:                                               ; preds = %51, %44
  br label %54

54:                                               ; preds = %53
  %55 = load i32, i32* %5, align 4
  %56 = add nsw i32 %55, 1
  store i32 %56, i32* %5, align 4
  br label %32

57:                                               ; preds = %32
  %58 = load i32, i32* %4, align 4
  %59 = add nsw i32 %58, 1
  store i32 %59, i32* %6, align 4
  store i32 0, i32* %7, align 4
  br label %60

60:                                               ; preds = %78, %57
  %61 = load i32, i32* %6, align 4
  %62 = load i32, i32* %5, align 4
  %63 = load i32, i32* %9, align 4
  %64 = add nsw i32 %62, %63
  %65 = icmp sle i32 %61, %64
  %66 = zext i1 %65 to i32
  %67 = load i32, i32* %7, align 4
  %68 = load i32, i32* %9, align 4
  %69 = icmp slt i32 %67, %68
  br i1 %69, label %70, label %83

70:                                               ; preds = %60
  %71 = load i32, i32* %7, align 4
  %72 = sext i32 %71 to i64
  %73 = getelementptr inbounds [3 x i8], [3 x i8]* %2, i64 0, i64 %72
  %74 = load i8, i8* %73, align 1
  %75 = load i32, i32* %6, align 4
  %76 = sext i32 %75 to i64
  %77 = getelementptr inbounds [20 x i8], [20 x i8]* %1, i64 0, i64 %76
  store i8 %74, i8* %77, align 1
  br label %78

78:                                               ; preds = %70
  %79 = load i32, i32* %6, align 4
  %80 = add nsw i32 %79, 1
  store i32 %80, i32* %6, align 4
  %81 = load i32, i32* %7, align 4
  %82 = add nsw i32 %81, 1
  store i32 %82, i32* %7, align 4
  br label %60

83:                                               ; preds = %60
  %84 = load i32, i32* %4, align 4
  %85 = load i32, i32* %9, align 4
  %86 = add nsw i32 %84, %85
  %87 = add nsw i32 %86, 1
  store i32 %87, i32* %6, align 4
  %88 = load i32, i32* %4, align 4
  %89 = add nsw i32 %88, 1
  store i32 %89, i32* %7, align 4
  br label %90

90:                                               ; preds = %108, %83
  %91 = load i32, i32* %6, align 4
  %92 = load i32, i32* %8, align 4
  %93 = load i32, i32* %9, align 4
  %94 = add nsw i32 %92, %93
  %95 = icmp slt i32 %91, %94
  %96 = zext i1 %95 to i32
  %97 = load i32, i32* %7, align 4
  %98 = load i32, i32* %8, align 4
  %99 = icmp slt i32 %97, %98
  br i1 %99, label %100, label %113

100:                                              ; preds = %90
  %101 = load i32, i32* %7, align 4
  %102 = sext i32 %101 to i64
  %103 = getelementptr inbounds [10 x i8], [10 x i8]* %3, i64 0, i64 %102
  %104 = load i8, i8* %103, align 1
  %105 = load i32, i32* %6, align 4
  %106 = sext i32 %105 to i64
  %107 = getelementptr inbounds [20 x i8], [20 x i8]* %1, i64 0, i64 %106
  store i8 %104, i8* %107, align 1
  br label %108

108:                                              ; preds = %100
  %109 = load i32, i32* %6, align 4
  %110 = add nsw i32 %109, 1
  store i32 %110, i32* %6, align 4
  %111 = load i32, i32* %7, align 4
  %112 = add nsw i32 %111, 1
  store i32 %112, i32* %7, align 4
  br label %90

113:                                              ; preds = %90
  %114 = getelementptr inbounds [20 x i8], [20 x i8]* %1, i64 0, i64 0
  %115 = call i32 (i8*, ...) @printf(i8* getelementptr inbounds ([4 x i8], [4 x i8]* @.str.1, i64 0, i64 0), i8* %114)
  store i32 0, i32* %5, align 4
  br label %116

116:                                              ; preds = %126, %113
  %117 = load i32, i32* %5, align 4
  %118 = load i32, i32* %8, align 4
  %119 = load i32, i32* %9, align 4
  %120 = add nsw i32 %118, %119
  %121 = icmp slt i32 %117, %120
  br i1 %121, label %122, label %129

122:                                              ; preds = %116
  %123 = load i32, i32* %5, align 4
  %124 = sext i32 %123 to i64
  %125 = getelementptr inbounds [20 x i8], [20 x i8]* %1, i64 0, i64 %124
  store i8 0, i8* %125, align 1
  br label %126

126:                                              ; preds = %122
  %127 = load i32, i32* %5, align 4
  %128 = add nsw i32 %127, 1
  store i32 %128, i32* %5, align 4
  br label %116

129:                                              ; preds = %116
  store i32 0, i32* %5, align 4
  br label %130

130:                                              ; preds = %138, %129
  %131 = load i32, i32* %5, align 4
  %132 = load i32, i32* %9, align 4
  %133 = icmp slt i32 %131, %132
  br i1 %133, label %134, label %141

134:                                              ; preds = %130
  %135 = load i32, i32* %5, align 4
  %136 = sext i32 %135 to i64
  %137 = getelementptr inbounds [3 x i8], [3 x i8]* %2, i64 0, i64 %136
  store i8 0, i8* %137, align 1
  br label %138

138:                                              ; preds = %134
  %139 = load i32, i32* %5, align 4
  %140 = add nsw i32 %139, 1
  store i32 %140, i32* %5, align 4
  br label %130

141:                                              ; preds = %130
  br label %142

142:                                              ; preds = %141
  %143 = load i32, i32* %10, align 4
  %144 = add nsw i32 %143, 1
  store i32 %144, i32* %10, align 4
  br label %15

145:                                              ; preds = %15
  ret void
}

; Function Attrs: argmemonly nounwind willreturn
declare void @llvm.memset.p0i8.i64(i8* nocapture writeonly, i8, i64, i1 immarg) #1

declare dso_local i32 @__isoc99_scanf(i8*, ...) #2

; Function Attrs: nounwind readonly
declare dso_local i64 @strlen(i8*) #3

; Function Attrs: nounwind
declare dso_local i8* @strcpy(i8*, i8*) #4

declare dso_local i32 @printf(i8*, ...) #2


!llvm.module.flags = !{!0}
!llvm.ident = !{!1}

!0 = !{i32 1, !"wchar_size", i32 4}
!1 = !{!"clang version 10.0.0-4ubuntu1 "}
